; Function Attrs: mustprogress uwtable
define void @_ZN5boost9iostreams15file_descriptorC2ERKNSt7__cxx1112basic_stringIcSt11char_traitsIcESaIcEEESt13_Ios_Openmode(ptr noundef nonnull align 8 dereferenceable(16) %0, ptr nocapture noundef nonnull readonly align 8 dereferenceable(32) %1, i32 noundef %2) unnamed_addr #3 align 2 personality ptr @__gxx_personality_v0 {
  %4 = tail call noalias noundef nonnull dereferenceable(8) ptr @_Znwm(i64 noundef 8) #33
  store i32 -1, ptr %4, align 4, !tbaa !3
  %5 = getelementptr inbounds nuw i8, ptr %4, i64 4
  store i32 0, ptr %5, align 4, !tbaa !8
  store ptr %4, ptr %0, align 8, !tbaa !19
  %6 = getelementptr inbounds nuw i8, ptr %0, i64 8
  store ptr null, ptr %6, align 8, !tbaa !22
  invoke void @_ZN5boost6detail20sp_pointer_constructINS_9iostreams6detail20file_descriptor_implES4_EEvPNS_10shared_ptrIT_EEPT0_RNS0_12shared_countE(ptr noundef nonnull align 8 dereferenceable(16) %0, ptr noundef nonnull %4, ptr noundef nonnull align 8 dereferenceable(8) %6)
          to label %_ZN5boost10shared_ptrINS_9iostreams6detail20file_descriptor_implEEC2IS3_EEPT_.exit unwind label %7

common.resume:                                    ; preds = %10, %7
  %common.resume.op = phi { ptr, i32 } [ %8, %7 ], [ %11, %10 ]
  resume { ptr, i32 } %common.resume.op

7:                                                ; preds = %3
  %8 = landingpad { ptr, i32 }
          cleanup
  tail call void @_ZN5boost6detail12shared_countD2Ev(ptr noundef nonnull align 8 dereferenceable(8) %6) #28
  br label %common.resume

_ZN5boost10shared_ptrINS_9iostreams6detail20file_descriptor_implEEC2IS3_EEPT_.exit: ; preds = %3
  invoke void @_ZN5boost9iostreams15file_descriptor4openERKNSt7__cxx1112basic_stringIcSt11char_traitsIcESaIcEEESt13_Ios_Openmode(ptr noundef nonnull align 8 dereferenceable(16) %0, ptr noundef nonnull align 8 dereferenceable(32) %1, i32 noundef %2)
          to label %9 unwind label %10

9:                                                ; preds = %_ZN5boost10shared_ptrINS_9iostreams6detail20file_descriptor_implEEC2IS3_EEPT_.exit
  ret void

10:                                               ; preds = %_ZN5boost10shared_ptrINS_9iostreams6detail20file_descriptor_implEEC2IS3_EEPT_.exit
  %11 = landingpad { ptr, i32 }
          cleanup
  tail call void @_ZN5boost10shared_ptrINS_9iostreams6detail20file_descriptor_implEED2Ev(ptr noundef nonnull align 8 dereferenceable(16) %0) #28
  br label %common.resume
}